; ModuleID = '49/1238.c'
source_filename = "49/1238.c"
target datalayout = "e-m:e-p270:32:32-p271:32:32-p272:64:64-i64:64-f80:128-n8:16:32:64-S128"
target triple = "x86_64-pc-linux-gnu"

@.str = private unnamed_addr constant [4 x i8] c"%s\0A\00", align 1

; Function Attrs: noinline nounwind uwtable
define dso_local i32 @main() #0 {
  %1 = alloca i32, align 4
  %2 = alloca [520 x i8], align 16
  %3 = alloca [520 x i8], align 16
  %4 = alloca i32, align 4
  %5 = alloca i32, align 4
  %6 = alloca i32, align 4
  %7 = alloca i32, align 4
  store i32 0, i32* %1, align 4
  %8 = bitcast [520 x i8]* %3 to i8*
  call void @llvm.memset.p0i8.i64(i8* align 16 %8, i8 0, i64 520, i1 false)
  %9 = getelementptr inbounds [520 x i8], [520 x i8]* %2, i64 0, i64 0
  %10 = call i32 (i8*, ...) bitcast (i32 (...)* @gets to i32 (i8*, ...)*)(i8* %9)
  %11 = getelementptr inbounds [520 x i8], [520 x i8]* %2, i64 0, i64 0
  %12 = call i64 @strlen(i8* %11) #4
  %13 = trunc i64 %12 to i32
  store i32 %13, i32* %4, align 4
  store i32 2, i32* %5, align 4
  br label %14

14:                                               ; preds = %56, %0
  %15 = load i32, i32* %5, align 4
  %16 = load i32, i32* %4, align 4
  %17 = icmp sle i32 %15, %16
  br i1 %17, label %18, label %59

18:                                               ; preds = %14
  store i32 0, i32* %6, align 4
  br label %19

19:                                               ; preds = %52, %18
  %20 = load i32, i32* %6, align 4
  %21 = load i32, i32* %4, align 4
  %22 = load i32, i32* %5, align 4
  %23 = sub nsw i32 %21, %22
  %24 = icmp sle i32 %20, %23
  br i1 %24, label %25, label %55

25:                                               ; preds = %19
  store i32 0, i32* %7, align 4
  br label %26

26:                                               ; preds = %40, %25
  %27 = load i32, i32* %7, align 4
  %28 = load i32, i32* %5, align 4
  %29 = icmp slt i32 %27, %28
  br i1 %29, label %30, label %43

30:                                               ; preds = %26
  %31 = load i32, i32* %6, align 4
  %32 = load i32, i32* %7, align 4
  %33 = add nsw i32 %31, %32
  %34 = sext i32 %33 to i64
  %35 = getelementptr inbounds [520 x i8], [520 x i8]* %2, i64 0, i64 %34
  %36 = load i8, i8* %35, align 1
  %37 = load i32, i32* %7, align 4
  %38 = sext i32 %37 to i64
  %39 = getelementptr inbounds [520 x i8], [520 x i8]* %3, i64 0, i64 %38
  store i8 %36, i8* %39, align 1
  br label %40

40:                                               ; preds = %30
  %41 = load i32, i32* %7, align 4
  %42 = add nsw i32 %41, 1
  store i32 %42, i32* %7, align 4
  br label %26

43:                                               ; preds = %26
  %44 = getelementptr inbounds [520 x i8], [520 x i8]* %3, i64 0, i64 0
  %45 = call i32 @hui(i8* %44)
  %46 = icmp eq i32 %45, 1
  br i1 %46, label %47, label %50

47:                                               ; preds = %43
  %48 = getelementptr inbounds [520 x i8], [520 x i8]* %3, i64 0, i64 0
  %49 = call i32 (i8*, ...) @printf(i8* getelementptr inbounds ([4 x i8], [4 x i8]* @.str, i64 0, i64 0), i8* %48)
  br label %51

50:                                               ; preds = %43
  br label %52

51:                                               ; preds = %47
  br label %52

52:                                               ; preds = %51, %50
  %53 = load i32, i32* %6, align 4
  %54 = add nsw i32 %53, 1
  store i32 %54, i32* %6, align 4
  br label %19

55:                                               ; preds = %19
  br label %56

56:                                               ; preds = %55
  %57 = load i32, i32* %5, align 4
  %58 = add nsw i32 %57, 1
  store i32 %58, i32* %5, align 4
  br label %14

59:                                               ; preds = %14
  ret i32 0
}

; Function Attrs: argmemonly nounwind willreturn
declare void @llvm.memset.p0i8.i64(i8* nocapture writeonly, i8, i64, i1 immarg) #1

declare dso_local i32 @gets(...) #2

; Function Attrs: nounwind readonly
declare dso_local i64 @strlen(i8*) #3

; Function Attrs: noinline nounwind uwtable
define dso_local i32 @hui(i8* %0) #0 {
  %2 = alloca i32, align 4
  %3 = alloca i8*, align 8
  %4 = alloca i32, align 4
  store i8* %0, i8** %3, align 8
  store i32 0, i32* %4, align 4
  br label %5

5:                                                ; preds = %31, %1
  %6 = load i32, i32* %4, align 4
  %7 = sext i32 %6 to i64
  %8 = load i8*, i8** %3, align 8
  %9 = call i64 @strlen(i8* %8) #4
  %10 = icmp ult i64 %7, %9
  br i1 %10, label %11, label %34

11:                                               ; preds = %5
  %12 = load i8*, i8** %3, align 8
  %13 = load i8*, i8** %3, align 8
  %14 = call i64 @strlen(i8* %13) #4
  %15 = sub i64 %14, 1
  %16 = load i32, i32* %4, align 4
  %17 = sext i32 %16 to i64
  %18 = sub i64 %15, %17
  %19 = getelementptr inbounds i8, i8* %12, i64 %18
  %20 = load i8, i8* %19, align 1
  %21 = sext i8 %20 to i32
  %22 = load i8*, i8** %3, align 8
  %23 = load i32, i32* %4, align 4
  %24 = sext i32 %23 to i64
  %25 = getelementptr inbounds i8, i8* %22, i64 %24
  %26 = load i8, i8* %25, align 1
  %27 = sext i8 %26 to i32
  %28 = icmp ne i32 %21, %27
  br i1 %28, label %29, label %30

29:                                               ; preds = %11
  br label %34

30:                                               ; preds = %11
  br label %31

31:                                               ; preds = %30
  %32 = load i32, i32* %4, align 4
  %33 = add nsw i32 %32, 1
  store i32 %33, i32* %4, align 4
  br label %5

34:                                               ; preds = %29, %5
  %35 = load i32, i32* %4, align 4
  %36 = sext i32 %35 to i64
  %37 = load i8*, i8** %3, align 8
  %38 = call i64 @strlen(i8* %37) #4
  %39 = icmp eq i64 %36, %38
  br i1 %39, label %40, label %41

40:                                               ; preds = %34
  store i32 1, i32* %2, align 4
  br label %42

41:                                               ; preds = %34
  store i32 0, i32* %2, align 4
  br label %42

42:                                               ; preds = %41, %40
  %43 = load i32, i32* %2, align 4
  ret i32 %43
}

declare dso_local i32 @printf(i8*, ...) #2


!llvm.module.flags = !{!0}
!llvm.ident = !{!1}

!0 = !{i32 1, !"wchar_size", i32 4}
!1 = !{!"clang version 10.0.0-4ubuntu1 "}
